; Function Attrs: mustprogress nofree norecurse nosync nounwind willreturn memory(argmem: read) uwtable
define dso_local zeroext i1 @hdr_values_are_equivalent(ptr nocapture noundef readonly %h, i64 noundef %a, i64 noundef %b) local_unnamed_addr #0 {
entry:
  %sub_bucket_mask.i.i = getelementptr inbounds i8, ptr %h, i64 32
  %0 = load i64, ptr %sub_bucket_mask.i.i, align 8
  %or.i.i = or i64 %0, %a
  %1 = tail call i64 @llvm.ctlz.i64(i64 %or.i.i, i1 true), !range !5
  %cast.i.i.i = trunc i64 %1 to i32
  %sub_bucket_half_count_magnitude.i.i = getelementptr inbounds i8, ptr %h, i64 24
  %2 = load i32, ptr %sub_bucket_half_count_magnitude.i.i, align 8
  %3 = add i32 %2, %cast.i.i.i
  %add.i.i = sub i32 63, %3
  %sh_prom.i.i = zext nneg i32 %add.i.i to i64
  %shr.i.i = ashr i64 %a, %sh_prom.i.i
  %sext.i = shl i64 %shr.i.i, 32
  %conv.i5.i = ashr exact i64 %sext.i, 32
  %shl.i.i = shl i64 %conv.i5.i, %sh_prom.i.i
  %or.i.i3 = or i64 %0, %b
  %4 = tail call i64 @llvm.ctlz.i64(i64 %or.i.i3, i1 true), !range !5
  %cast.i.i.i4 = trunc i64 %4 to i32
  %5 = add i32 %2, %cast.i.i.i4
  %add.i.i6 = sub i32 63, %5
  %sh_prom.i.i7 = zext nneg i32 %add.i.i6 to i64
  %shr.i.i8 = ashr i64 %b, %sh_prom.i.i7
  %sext.i9 = shl i64 %shr.i.i8, 32
  %conv.i5.i10 = ashr exact i64 %sext.i9, 32
  %shl.i.i11 = shl i64 %conv.i5.i10, %sh_prom.i.i7
  %cmp = icmp eq i64 %shl.i.i, %shl.i.i11
  ret i1 %cmp
}